target datalayout = "e-m:e-p270:32:32-p271:32:32-p272:64:64-i64:64-i128:128-f80:128-n8:16:32:64-S128"
target triple = "x86_64-pc-linux-gnu"

%"class.ncnn::Mat" = type { ptr, ptr, i64, i32, ptr, i32, i32, i32, i32, i32, i64 }
%"class.ncnn::Option" = type { i8, i32, ptr, ptr, i32, i8, i8, i8, i8, i8, i8, i8, i8, i8, i8, i8, i8, i8, i8, i8, i8, i8, i8, i8, i8, i32, i8, i8, i8, i8, i8, i8, i8, i8, i8, i8, i8, i8 }

; Function Attrs: mustprogress nounwind uwtable
define linkonce_odr noundef nofpclass(nan inf) float @_ZSt5roundf(float noundef nofpclass(nan inf) %0) #9 comdat {
  %2 = alloca float, align 4
  store float %0, ptr %2, align 4, !tbaa !45
  %3 = load float, ptr %2, align 4, !tbaa !45
  %4 = call fast float @llvm.round.f32(float %3)
  ret float %4
}

; Function Attrs: inlinehint mustprogress uwtable
define internal noundef signext i8 @_ZN4ncnnL10float2int8Ef(float noundef nofpclass(nan inf) %0) #12 {
  %2 = alloca i8, align 1
  %3 = alloca float, align 4
  %4 = alloca i32, align 4
  %5 = alloca i32, align 4
  store float %0, ptr %3, align 4, !tbaa !45
  call void @llvm.lifetime.start.p0(i64 4, ptr %4) #11
  %6 = load float, ptr %3, align 4, !tbaa !45
  %7 = call fast noundef nofpclass(nan inf) float @_ZSt5roundf(float noundef nofpclass(nan inf) %6)
  %8 = fptosi float %7 to i32
  store i32 %8, ptr %4, align 4, !tbaa !44
  %9 = load i32, ptr %4, align 4, !tbaa !44
  %10 = icmp sgt i32 %9, 127
  br i1 %10, label %11, label %12

11:                                               ; preds = %1
  store i8 127, ptr %2, align 1
  store i32 1, ptr %5, align 4
  br label %19

12:                                               ; preds = %1
  %13 = load i32, ptr %4, align 4, !tbaa !44
  %14 = icmp slt i32 %13, -127
  br i1 %14, label %15, label %16

15:                                               ; preds = %12
  store i8 -127, ptr %2, align 1
  store i32 1, ptr %5, align 4
  br label %19

16:                                               ; preds = %12
  %17 = load i32, ptr %4, align 4, !tbaa !44
  %18 = trunc i32 %17 to i8
  store i8 %18, ptr %2, align 1
  store i32 1, ptr %5, align 4
  br label %19

19:                                               ; preds = %16, %15, %11
  call void @llvm.lifetime.end.p0(i64 4, ptr %4) #11
  %20 = load i8, ptr %2, align 1
  ret i8 %20
}

; Function Attrs: alwaysinline mustprogress nounwind uwtable
define linkonce_odr hidden noundef ptr @_ZN4ncnn3Mat3rowIaEEPT_i(ptr noundef nonnull align 8 dereferenceable(72) %0, i32 noundef %1) #3 comdat align 2 {
  %3 = alloca ptr, align 8
  %4 = alloca i32, align 4
  store ptr %0, ptr %3, align 8, !tbaa !51
  store i32 %1, ptr %4, align 4, !tbaa !44
  %5 = load ptr, ptr %3, align 8
  %6 = getelementptr inbounds nuw %"class.ncnn::Mat", ptr %5, i32 0, i32 0
  %7 = load ptr, ptr %6, align 8, !tbaa !57
  %8 = getelementptr inbounds nuw %"class.ncnn::Mat", ptr %5, i32 0, i32 6
  %9 = load i32, ptr %8, align 4, !tbaa !63
  %10 = sext i32 %9 to i64
  %11 = load i32, ptr %4, align 4, !tbaa !44
  %12 = sext i32 %11 to i64
  %13 = mul i64 %10, %12
  %14 = getelementptr inbounds nuw %"class.ncnn::Mat", ptr %5, i32 0, i32 2
  %15 = load i64, ptr %14, align 8, !tbaa !59
  %16 = mul i64 %13, %15
  %17 = getelementptr inbounds nuw i8, ptr %7, i64 %16
  ret ptr %17
}

; Function Attrs: inlinehint mustprogress nounwind uwtable
define linkonce_odr noundef nonnull align 4 dereferenceable(4) ptr @_ZSt3maxIfERKT_S2_S2_(ptr noundef nonnull align 4 dereferenceable(4) %0, ptr noundef nonnull align 4 dereferenceable(4) %1) #0 comdat {
  %3 = alloca ptr, align 8
  %4 = alloca ptr, align 8
  %5 = alloca ptr, align 8
  store ptr %0, ptr %4, align 8, !tbaa !69
  store ptr %1, ptr %5, align 8, !tbaa !69
  %6 = load ptr, ptr %4, align 8, !tbaa !69
  %7 = load float, ptr %6, align 4, !tbaa !45
  %8 = load ptr, ptr %5, align 8, !tbaa !69
  %9 = load float, ptr %8, align 4, !tbaa !45
  %10 = fcmp fast olt float %7, %9
  br i1 %10, label %11, label %13

11:                                               ; preds = %2
  %12 = load ptr, ptr %5, align 8, !tbaa !69
  store ptr %12, ptr %3, align 8
  br label %15

13:                                               ; preds = %2
  %14 = load ptr, ptr %4, align 8, !tbaa !69
  store ptr %14, ptr %3, align 8
  br label %15

15:                                               ; preds = %13, %11
  %16 = load ptr, ptr %3, align 8
  ret ptr %16
}

; Function Attrs: inlinehint mustprogress nounwind uwtable
define linkonce_odr noundef nofpclass(nan inf) float @_ZSt4fabsf(float noundef nofpclass(nan inf) %0) #0 comdat {
  %2 = alloca float, align 4
  store float %0, ptr %2, align 4, !tbaa !45
  %3 = load float, ptr %2, align 4, !tbaa !45
  %4 = call fast float @llvm.fabs.f32(float %3)
  ret float %4
}

; Function Attrs: alwaysinline mustprogress nounwind uwtable
define linkonce_odr hidden noundef ptr @_ZNK4ncnn3Mat3rowEi(ptr noundef nonnull align 8 dereferenceable(72) %0, i32 noundef %1) #3 comdat align 2 {
  %3 = alloca ptr, align 8
  %4 = alloca i32, align 4
  store ptr %0, ptr %3, align 8, !tbaa !51
  store i32 %1, ptr %4, align 4, !tbaa !44
  %5 = load ptr, ptr %3, align 8
  %6 = getelementptr inbounds nuw %"class.ncnn::Mat", ptr %5, i32 0, i32 0
  %7 = load ptr, ptr %6, align 8, !tbaa !57
  %8 = getelementptr inbounds nuw %"class.ncnn::Mat", ptr %5, i32 0, i32 6
  %9 = load i32, ptr %8, align 4, !tbaa !63
  %10 = sext i32 %9 to i64
  %11 = load i32, ptr %4, align 4, !tbaa !44
  %12 = sext i32 %11 to i64
  %13 = mul i64 %10, %12
  %14 = getelementptr inbounds nuw %"class.ncnn::Mat", ptr %5, i32 0, i32 2
  %15 = load i64, ptr %14, align 8, !tbaa !59
  %16 = mul i64 %13, %15
  %17 = getelementptr inbounds nuw i8, ptr %7, i64 %16
  ret ptr %17
}

; Function Attrs: mustprogress uwtable
define internal void @_ZN4ncnnL19dynamic_quantize_2dERKNS_3MatERS0_RfRKNS_6OptionE(ptr noundef nonnull align 8 dereferenceable(72) %0, ptr noundef nonnull align 8 dereferenceable(72) %1, ptr noundef nonnull align 4 dereferenceable(4) %2, ptr noundef nonnull align 8 dereferenceable(64) %3) #1 {
  %5 = alloca ptr, align 8
  %6 = alloca ptr, align 8
  %7 = alloca ptr, align 8
  %8 = alloca ptr, align 8
  %9 = alloca float, align 4
  %10 = alloca i32, align 4
  %11 = alloca i32, align 4
  %12 = alloca ptr, align 8
  %13 = alloca i32, align 4
  %14 = alloca float, align 4
  %15 = alloca i32, align 4
  %16 = alloca ptr, align 8
  %17 = alloca ptr, align 8
  %18 = alloca i32, align 4
  store ptr %0, ptr %5, align 8, !tbaa !51
  store ptr %1, ptr %6, align 8, !tbaa !51
  store ptr %2, ptr %7, align 8, !tbaa !69
  store ptr %3, ptr %8, align 8, !tbaa !49
  %19 = load ptr, ptr %6, align 8, !tbaa !51
  %20 = load ptr, ptr %5, align 8, !tbaa !51
  %21 = getelementptr inbounds nuw %"class.ncnn::Mat", ptr %20, i32 0, i32 6
  %22 = load i32, ptr %21, align 4, !tbaa !63
  %23 = load ptr, ptr %5, align 8, !tbaa !51
  %24 = getelementptr inbounds nuw %"class.ncnn::Mat", ptr %23, i32 0, i32 7
  %25 = load i32, ptr %24, align 8, !tbaa !52
  %26 = load ptr, ptr %8, align 8, !tbaa !49
  %27 = getelementptr inbounds nuw %"class.ncnn::Option", ptr %26, i32 0, i32 3
  %28 = load ptr, ptr %27, align 8, !tbaa !55
  call void @_ZN4ncnn3Mat6createEiimiPNS_9AllocatorE(ptr noundef nonnull align 8 dereferenceable(72) %19, i32 noundef %22, i32 noundef %25, i64 noundef 1, i32 noundef 1, ptr noundef %28)
  call void @llvm.lifetime.start.p0(i64 4, ptr %9) #11
  store float 0.000000e+00, ptr %9, align 4, !tbaa !45
  call void @llvm.lifetime.start.p0(i64 4, ptr %10) #11
  store i32 0, ptr %10, align 4, !tbaa !44
  br label %29

29:                                               ; preds = %60, %4
  %30 = load i32, ptr %10, align 4, !tbaa !44
  %31 = load ptr, ptr %6, align 8, !tbaa !51
  %32 = getelementptr inbounds nuw %"class.ncnn::Mat", ptr %31, i32 0, i32 7
  %33 = load i32, ptr %32, align 8, !tbaa !52
  %34 = icmp slt i32 %30, %33
  br i1 %34, label %36, label %35

35:                                               ; preds = %29
  store i32 2, ptr %11, align 4
  call void @llvm.lifetime.end.p0(i64 4, ptr %10) #11
  br label %63

36:                                               ; preds = %29
  call void @llvm.lifetime.start.p0(i64 8, ptr %12) #11
  %37 = load ptr, ptr %5, align 8, !tbaa !51
  %38 = load i32, ptr %10, align 4, !tbaa !44
  %39 = call noundef ptr @_ZNK4ncnn3Mat3rowEi(ptr noundef nonnull align 8 dereferenceable(72) %37, i32 noundef %38)
  store ptr %39, ptr %12, align 8, !tbaa !69
  call void @llvm.lifetime.start.p0(i64 4, ptr %13) #11
  store i32 0, ptr %13, align 4, !tbaa !44
  br label %40

40:                                               ; preds = %56, %36
  %41 = load i32, ptr %13, align 4, !tbaa !44
  %42 = load ptr, ptr %6, align 8, !tbaa !51
  %43 = getelementptr inbounds nuw %"class.ncnn::Mat", ptr %42, i32 0, i32 6
  %44 = load i32, ptr %43, align 4, !tbaa !63
  %45 = icmp slt i32 %41, %44
  br i1 %45, label %47, label %46

46:                                               ; preds = %40
  store i32 5, ptr %11, align 4
  call void @llvm.lifetime.end.p0(i64 4, ptr %13) #11
  br label %59

47:                                               ; preds = %40
  call void @llvm.lifetime.start.p0(i64 4, ptr %14) #11
  %48 = load ptr, ptr %12, align 8, !tbaa !69
  %49 = load i32, ptr %13, align 4, !tbaa !44
  %50 = sext i32 %49 to i64
  %51 = getelementptr inbounds float, ptr %48, i64 %50
  %52 = load float, ptr %51, align 4, !tbaa !45
  %53 = call fast noundef nofpclass(nan inf) float @_ZSt4fabsf(float noundef nofpclass(nan inf) %52)
  store float %53, ptr %14, align 4, !tbaa !45
  %54 = call noundef nonnull align 4 dereferenceable(4) ptr @_ZSt3maxIfERKT_S2_S2_(ptr noundef nonnull align 4 dereferenceable(4) %9, ptr noundef nonnull align 4 dereferenceable(4) %14)
  %55 = load float, ptr %54, align 4, !tbaa !45
  store float %55, ptr %9, align 4, !tbaa !45
  call void @llvm.lifetime.end.p0(i64 4, ptr %14) #11
  br label %56

56:                                               ; preds = %47
  %57 = load i32, ptr %13, align 4, !tbaa !44
  %58 = add nsw i32 %57, 1
  store i32 %58, ptr %13, align 4, !tbaa !44
  br label %40, !llvm.loop !107

59:                                               ; preds = %46
  call void @llvm.lifetime.end.p0(i64 8, ptr %12) #11
  br label %60

60:                                               ; preds = %59
  %61 = load i32, ptr %10, align 4, !tbaa !44
  %62 = add nsw i32 %61, 1
  store i32 %62, ptr %10, align 4, !tbaa !44
  br label %29, !llvm.loop !108

63:                                               ; preds = %35
  %64 = load float, ptr %9, align 4, !tbaa !45
  %65 = fcmp fast oeq float %64, 0.000000e+00
  br i1 %65, label %66, label %67

66:                                               ; preds = %63
  br label %70

67:                                               ; preds = %63
  %68 = load float, ptr %9, align 4, !tbaa !45
  %69 = fdiv fast float 1.270000e+02, %68
  br label %70

70:                                               ; preds = %67, %66
  %71 = phi fast float [ 1.000000e+00, %66 ], [ %69, %67 ]
  %72 = load ptr, ptr %7, align 8, !tbaa !69
  store float %71, ptr %72, align 4, !tbaa !45
  call void @llvm.lifetime.start.p0(i64 4, ptr %15) #11
  store i32 0, ptr %15, align 4, !tbaa !44
  br label %73

73:                                               ; preds = %112, %70
  %74 = load i32, ptr %15, align 4, !tbaa !44
  %75 = load ptr, ptr %6, align 8, !tbaa !51
  %76 = getelementptr inbounds nuw %"class.ncnn::Mat", ptr %75, i32 0, i32 7
  %77 = load i32, ptr %76, align 8, !tbaa !52
  %78 = icmp slt i32 %74, %77
  br i1 %78, label %80, label %79

79:                                               ; preds = %73
  store i32 8, ptr %11, align 4
  call void @llvm.lifetime.end.p0(i64 4, ptr %15) #11
  br label %115

80:                                               ; preds = %73
  call void @llvm.lifetime.start.p0(i64 8, ptr %16) #11
  %81 = load ptr, ptr %5, align 8, !tbaa !51
  %82 = load i32, ptr %15, align 4, !tbaa !44
  %83 = call noundef ptr @_ZNK4ncnn3Mat3rowEi(ptr noundef nonnull align 8 dereferenceable(72) %81, i32 noundef %82)
  store ptr %83, ptr %16, align 8, !tbaa !69
  call void @llvm.lifetime.start.p0(i64 8, ptr %17) #11
  %84 = load ptr, ptr %6, align 8, !tbaa !51
  %85 = load i32, ptr %15, align 4, !tbaa !44
  %86 = call noundef ptr @_ZN4ncnn3Mat3rowIaEEPT_i(ptr noundef nonnull align 8 dereferenceable(72) %84, i32 noundef %85)
  store ptr %86, ptr %17, align 8, !tbaa !74
  call void @llvm.lifetime.start.p0(i64 4, ptr %18) #11
  store i32 0, ptr %18, align 4, !tbaa !44
  br label %87

87:                                               ; preds = %108, %80
  %88 = load i32, ptr %18, align 4, !tbaa !44
  %89 = load ptr, ptr %6, align 8, !tbaa !51
  %90 = getelementptr inbounds nuw %"class.ncnn::Mat", ptr %89, i32 0, i32 6
  %91 = load i32, ptr %90, align 4, !tbaa !63
  %92 = icmp slt i32 %88, %91
  br i1 %92, label %94, label %93

93:                                               ; preds = %87
  store i32 11, ptr %11, align 4
  call void @llvm.lifetime.end.p0(i64 4, ptr %18) #11
  br label %111

94:                                               ; preds = %87
  %95 = load ptr, ptr %16, align 8, !tbaa !69
  %96 = load i32, ptr %18, align 4, !tbaa !44
  %97 = sext i32 %96 to i64
  %98 = getelementptr inbounds float, ptr %95, i64 %97
  %99 = load float, ptr %98, align 4, !tbaa !45
  %100 = load ptr, ptr %7, align 8, !tbaa !69
  %101 = load float, ptr %100, align 4, !tbaa !45
  %102 = fmul fast float %99, %101
  %103 = call noundef signext i8 @_ZN4ncnnL10float2int8Ef(float noundef nofpclass(nan inf) %102)
  %104 = load ptr, ptr %17, align 8, !tbaa !74
  %105 = load i32, ptr %18, align 4, !tbaa !44
  %106 = sext i32 %105 to i64
  %107 = getelementptr inbounds i8, ptr %104, i64 %106
  store i8 %103, ptr %107, align 1, !tbaa !75
  br label %108

108:                                              ; preds = %94
  %109 = load i32, ptr %18, align 4, !tbaa !44
  %110 = add nsw i32 %109, 1
  store i32 %110, ptr %18, align 4, !tbaa !44
  br label %87, !llvm.loop !109

111:                                              ; preds = %93
  call void @llvm.lifetime.end.p0(i64 8, ptr %17) #11
  call void @llvm.lifetime.end.p0(i64 8, ptr %16) #11
  br label %112

112:                                              ; preds = %111
  %113 = load i32, ptr %15, align 4, !tbaa !44
  %114 = add nsw i32 %113, 1
  store i32 %114, ptr %15, align 4, !tbaa !44
  br label %73, !llvm.loop !110

115:                                              ; preds = %79
  call void @llvm.lifetime.end.p0(i64 4, ptr %9) #11
  ret void
}