; Function Attrs: mustprogress uwtable
define internal fastcc void @_ZN4ncnnL19dynamic_quantize_2dERKNS_3MatERS0_RfRKNS_6OptionE(ptr noundef nonnull readonly align 8 captures(none) dereferenceable(72) %0, ptr noundef nonnull align 8 dereferenceable(72) %1, ptr noundef nonnull align 4 captures(none) dereferenceable(4) %2, ptr %.16.val) unnamed_addr #1 {
  %4 = getelementptr inbounds nuw i8, ptr %0, i64 44
  %5 = load i32, ptr %4, align 4, !tbaa !45
  %6 = getelementptr inbounds nuw i8, ptr %0, i64 48
  %7 = load i32, ptr %6, align 8, !tbaa !46
  tail call void @_ZN4ncnn3Mat6createEiimiPNS_9AllocatorE(ptr noundef nonnull align 8 dereferenceable(72) %1, i32 noundef %5, i32 noundef %7, i64 noundef 1, i32 noundef 1, ptr noundef %.16.val)
  %8 = getelementptr inbounds nuw i8, ptr %1, i64 48
  %9 = load i32, ptr %8, align 8, !tbaa !46
  %10 = icmp sgt i32 %9, 0
  br i1 %10, label %.lr.ph8, label %._crit_edge9.thread31

._crit_edge9.thread31:                            ; preds = %3
  store float 1.000000e+00, ptr %2, align 4, !tbaa !49
  br label %._crit_edge15

.lr.ph8:                                          ; preds = %3
  %11 = load ptr, ptr %0, align 8, !tbaa !16
  %12 = load i32, ptr %4, align 4, !tbaa !45
  %13 = sext i32 %12 to i64
  %14 = getelementptr inbounds nuw i8, ptr %0, i64 16
  %15 = load i64, ptr %14, align 8, !tbaa !42
  %factor.op.mul = mul i64 %15, %13
  %16 = getelementptr inbounds nuw i8, ptr %1, i64 44
  %17 = load i32, ptr %16, align 4, !tbaa !45
  %18 = icmp sgt i32 %17, 0
  br i1 %18, label %.lr.ph.us.preheader, label %.lr.ph14

.lr.ph.us.preheader:                              ; preds = %.lr.ph8
  %wide.trip.count22 = zext nneg i32 %9 to i64
  %wide.trip.count = zext nneg i32 %17 to i64
  br label %.lr.ph.us

.lr.ph.us:                                        ; preds = %.lr.ph.us.preheader, %._crit_edge.us
  %indvars.iv19 = phi i64 [ 0, %.lr.ph.us.preheader ], [ %indvars.iv.next20, %._crit_edge.us ]
  %.025.us = phi float [ 0.000000e+00, %.lr.ph.us.preheader ], [ %.sroa.speculated.us, %._crit_edge.us ]
  %.reass.us = mul i64 %factor.op.mul, %indvars.iv19
  %19 = getelementptr inbounds nuw i8, ptr %11, i64 %.reass.us
  br label %20

20:                                               ; preds = %.lr.ph.us, %20
  %indvars.iv = phi i64 [ 0, %.lr.ph.us ], [ %indvars.iv.next, %20 ]
  %.13.us = phi float [ %.025.us, %.lr.ph.us ], [ %.sroa.speculated.us, %20 ]
  %21 = getelementptr inbounds nuw float, ptr %19, i64 %indvars.iv
  %22 = load float, ptr %21, align 4, !tbaa !49
  %23 = tail call fast noundef float @llvm.fabs.f32(float %22)
  %24 = fcmp fast olt float %.13.us, %23
  %.sroa.speculated.us = select i1 %24, float %23, float %.13.us
  %indvars.iv.next = add nuw nsw i64 %indvars.iv, 1
  %exitcond.not = icmp eq i64 %indvars.iv.next, %wide.trip.count
  br i1 %exitcond.not, label %._crit_edge.us, label %20, !llvm.loop !134

._crit_edge.us:                                   ; preds = %20
  %indvars.iv.next20 = add nuw nsw i64 %indvars.iv19, 1
  %exitcond23.not = icmp eq i64 %indvars.iv.next20, %wide.trip.count22
  br i1 %exitcond23.not, label %._crit_edge9, label %.lr.ph.us, !llvm.loop !135

._crit_edge9:                                     ; preds = %._crit_edge.us
  %25 = fcmp fast oeq float %.sroa.speculated.us, 0.000000e+00
  %26 = fdiv fast float 1.270000e+02, %.sroa.speculated.us
  %27 = select fast i1 %25, float 1.000000e+00, float %26
  br label %.lr.ph14

.lr.ph14:                                         ; preds = %.lr.ph8, %._crit_edge9
  %storemerge = phi float [ %27, %._crit_edge9 ], [ 1.000000e+00, %.lr.ph8 ]
  store float %storemerge, ptr %2, align 4, !tbaa !49
  %28 = getelementptr inbounds nuw i8, ptr %0, i64 16
  %29 = getelementptr inbounds nuw i8, ptr %1, i64 44
  %30 = getelementptr inbounds nuw i8, ptr %1, i64 16
  %31 = load i32, ptr %29, align 4, !tbaa !45
  %32 = icmp sgt i32 %31, 0
  br i1 %32, label %.lr.ph14.split, label %._crit_edge15

._crit_edge15:                                    ; preds = %._crit_edge, %.lr.ph14, %._crit_edge9.thread31
  ret void

.lr.ph14.split:                                   ; preds = %.lr.ph14, %._crit_edge
  %33 = phi i32 [ %49, %._crit_edge ], [ %9, %.lr.ph14 ]
  %34 = phi i32 [ %50, %._crit_edge ], [ %31, %.lr.ph14 ]
  %indvars.iv27 = phi i64 [ %indvars.iv.next28, %._crit_edge ], [ 0, %.lr.ph14 ]
  %35 = load ptr, ptr %0, align 8, !tbaa !16
  %36 = load i32, ptr %4, align 4, !tbaa !45
  %37 = sext i32 %36 to i64
  %38 = mul nsw i64 %indvars.iv27, %37
  %39 = load i64, ptr %28, align 8, !tbaa !42
  %40 = mul i64 %38, %39
  %41 = getelementptr inbounds nuw i8, ptr %35, i64 %40
  %42 = load ptr, ptr %1, align 8, !tbaa !16
  %43 = sext i32 %34 to i64
  %44 = mul nsw i64 %indvars.iv27, %43
  %45 = load i64, ptr %30, align 8, !tbaa !42
  %46 = mul i64 %44, %45
  %47 = getelementptr inbounds nuw i8, ptr %42, i64 %46
  %48 = icmp sgt i32 %34, 0
  br i1 %48, label %.lr.ph, label %._crit_edge

._crit_edge.loopexit:                             ; preds = %.lr.ph
  %.pre = load i32, ptr %8, align 8, !tbaa !46
  br label %._crit_edge

._crit_edge:                                      ; preds = %._crit_edge.loopexit, %.lr.ph14.split
  %49 = phi i32 [ %.pre, %._crit_edge.loopexit ], [ %33, %.lr.ph14.split ]
  %50 = phi i32 [ %60, %._crit_edge.loopexit ], [ %34, %.lr.ph14.split ]
  %indvars.iv.next28 = add nuw nsw i64 %indvars.iv27, 1
  %51 = sext i32 %49 to i64
  %52 = icmp slt i64 %indvars.iv.next28, %51
  br i1 %52, label %.lr.ph14.split, label %._crit_edge15, !llvm.loop !136

.lr.ph:                                           ; preds = %.lr.ph14.split, %.lr.ph
  %indvars.iv24 = phi i64 [ %indvars.iv.next25, %.lr.ph ], [ 0, %.lr.ph14.split ]
  %53 = getelementptr inbounds nuw float, ptr %41, i64 %indvars.iv24
  %54 = load float, ptr %53, align 4, !tbaa !49
  %55 = load float, ptr %2, align 4, !tbaa !49
  %56 = fmul fast float %55, %54
  %57 = tail call fast noundef float @llvm.round.f32(float %56)
  %58 = fptosi float %57 to i32
  %spec.select5.i = tail call i32 @llvm.smax.i32(i32 %58, i32 -127)
  %.06.i = tail call i32 @llvm.smin.i32(i32 %spec.select5.i, i32 127)
  %.0.i = trunc nsw i32 %.06.i to i8
  %59 = getelementptr inbounds nuw i8, ptr %47, i64 %indvars.iv24
  store i8 %.0.i, ptr %59, align 1, !tbaa !71
  %indvars.iv.next25 = add nuw nsw i64 %indvars.iv24, 1
  %60 = load i32, ptr %29, align 4, !tbaa !45
  %61 = sext i32 %60 to i64
  %62 = icmp slt i64 %indvars.iv.next25, %61
  br i1 %62, label %.lr.ph, label %._crit_edge.loopexit, !llvm.loop !138
}